target datalayout = "e-m:e-p270:32:32-p271:32:32-p272:64:64-i64:64-i128:128-f80:128-n8:16:32:64-S128"
target triple = "x86_64-unknown-linux-gnu"

%"class.pugi::xml_node" = type { ptr }
%"struct.pugi::impl::(anonymous namespace)::xml_memory_page" = type { ptr, ptr, ptr, i64, i64 }
%"struct.pugi::xml_node_struct" = type { i64, ptr, ptr, ptr, ptr, ptr, ptr, ptr }
%"struct.pugi::impl::(anonymous namespace)::xml_extra_buffer" = type { ptr, ptr }
%"struct.pugi::impl::(anonymous namespace)::xml_document_struct" = type { %"struct.pugi::xml_node_struct", %"struct.pugi::impl::(anonymous namespace)::xml_allocator", ptr, ptr }
%"struct.pugi::impl::(anonymous namespace)::xml_allocator" = type { ptr, i64 }
%"class.pugi::xml_document" = type { %"class.pugi::xml_node", ptr, [192 x i8] }

@_ZN4pugi4impl12_GLOBAL__N_138xml_memory_management_function_storageIiE10deallocateE = internal global ptr @_ZN4pugi4impl12_GLOBAL__N_118default_deallocateEPv, align 8

; Function Attrs: mustprogress nounwind uwtable
define internal void @_ZN4pugi4impl12_GLOBAL__N_113xml_allocatorC2EPNS1_15xml_memory_pageE(ptr noundef nonnull align 8 dereferenceable(16) %this, ptr noundef %root) unnamed_addr #0 align 2 {
entry:
  %this.addr = alloca ptr, align 8
  %root.addr = alloca ptr, align 8
  store ptr %this, ptr %this.addr, align 8
  store ptr %root, ptr %root.addr, align 8
  %this1 = load ptr, ptr %this.addr, align 8
  %_root = getelementptr inbounds %"struct.pugi::impl::(anonymous namespace)::xml_allocator", ptr %this1, i32 0, i32 0
  %0 = load ptr, ptr %root.addr, align 8
  store ptr %0, ptr %_root, align 8
  %_busy_size = getelementptr inbounds %"struct.pugi::impl::(anonymous namespace)::xml_allocator", ptr %this1, i32 0, i32 1
  %1 = load ptr, ptr %root.addr, align 8
  %busy_size = getelementptr inbounds %"struct.pugi::impl::(anonymous namespace)::xml_memory_page", ptr %1, i32 0, i32 3
  %2 = load i64, ptr %busy_size, align 8
  store i64 %2, ptr %_busy_size, align 8
  ret void
}

; Function Attrs: mustprogress nounwind uwtable
define internal void @_ZN4pugi15xml_node_structC2EPNS_4impl12_GLOBAL__N_115xml_memory_pageENS_13xml_node_typeE(ptr noundef nonnull align 8 dereferenceable(64) %this, ptr noundef %page, i32 noundef %type) unnamed_addr #0 align 2 {
entry:
  %this.addr = alloca ptr, align 8
  %page.addr = alloca ptr, align 8
  %type.addr = alloca i32, align 4
  store ptr %this, ptr %this.addr, align 8
  store ptr %page, ptr %page.addr, align 8
  store i32 %type, ptr %type.addr, align 4
  %this1 = load ptr, ptr %this.addr, align 8
  %name = getelementptr inbounds %"struct.pugi::xml_node_struct", ptr %this1, i32 0, i32 1
  store ptr null, ptr %name, align 8
  %value = getelementptr inbounds %"struct.pugi::xml_node_struct", ptr %this1, i32 0, i32 2
  store ptr null, ptr %value, align 8
  %parent = getelementptr inbounds %"struct.pugi::xml_node_struct", ptr %this1, i32 0, i32 3
  store ptr null, ptr %parent, align 8
  %first_child = getelementptr inbounds %"struct.pugi::xml_node_struct", ptr %this1, i32 0, i32 4
  store ptr null, ptr %first_child, align 8
  %prev_sibling_c = getelementptr inbounds %"struct.pugi::xml_node_struct", ptr %this1, i32 0, i32 5
  store ptr null, ptr %prev_sibling_c, align 8
  %next_sibling = getelementptr inbounds %"struct.pugi::xml_node_struct", ptr %this1, i32 0, i32 6
  store ptr null, ptr %next_sibling, align 8
  %first_attribute = getelementptr inbounds %"struct.pugi::xml_node_struct", ptr %this1, i32 0, i32 7
  store ptr null, ptr %first_attribute, align 8
  %0 = load ptr, ptr %page.addr, align 8
  %sub.ptr.lhs.cast = ptrtoint ptr %this1 to i64
  %sub.ptr.rhs.cast = ptrtoint ptr %0 to i64
  %sub.ptr.sub = sub i64 %sub.ptr.lhs.cast, %sub.ptr.rhs.cast
  %shl = shl i64 %sub.ptr.sub, 8
  %1 = load i32, ptr %type.addr, align 4
  %conv = zext i32 %1 to i64
  %or = or i64 %shl, %conv
  %header = getelementptr inbounds %"struct.pugi::xml_node_struct", ptr %this1, i32 0, i32 0
  store i64 %or, ptr %header, align 8
  ret void
}

; Function Attrs: mustprogress uwtable
define internal void @_ZN4pugi4impl12_GLOBAL__N_119xml_document_structC2EPNS1_15xml_memory_pageE(ptr noundef nonnull align 8 dereferenceable(96) %this, ptr noundef %page) unnamed_addr #2 align 2 {
entry:
  %this.addr = alloca ptr, align 8
  %page.addr = alloca ptr, align 8
  store ptr %this, ptr %this.addr, align 8
  store ptr %page, ptr %page.addr, align 8
  %this1 = load ptr, ptr %this.addr, align 8
  %0 = load ptr, ptr %page.addr, align 8
  call void @_ZN4pugi15xml_node_structC2EPNS_4impl12_GLOBAL__N_115xml_memory_pageENS_13xml_node_typeE(ptr noundef nonnull align 8 dereferenceable(64) %this1, ptr noundef %0, i32 noundef 1)
  %1 = getelementptr inbounds i8, ptr %this1, i64 64
  %2 = load ptr, ptr %page.addr, align 8
  call void @_ZN4pugi4impl12_GLOBAL__N_113xml_allocatorC2EPNS1_15xml_memory_pageE(ptr noundef nonnull align 8 dereferenceable(16) %1, ptr noundef %2)
  %buffer = getelementptr inbounds %"struct.pugi::impl::(anonymous namespace)::xml_document_struct", ptr %this1, i32 0, i32 2
  store ptr null, ptr %buffer, align 8
  %extra_buffers = getelementptr inbounds %"struct.pugi::impl::(anonymous namespace)::xml_document_struct", ptr %this1, i32 0, i32 3
  store ptr null, ptr %extra_buffers, align 8
  ret void
}

; Function Attrs: mustprogress nounwind uwtable
define internal noundef ptr @_ZN4pugi4impl12_GLOBAL__N_115xml_memory_page9constructEPv(ptr noundef %memory) #0 align 2 {
entry:
  %memory.addr = alloca ptr, align 8
  %result = alloca ptr, align 8
  store ptr %memory, ptr %memory.addr, align 8
  %0 = load ptr, ptr %memory.addr, align 8
  store ptr %0, ptr %result, align 8
  %1 = load ptr, ptr %result, align 8
  %allocator = getelementptr inbounds %"struct.pugi::impl::(anonymous namespace)::xml_memory_page", ptr %1, i32 0, i32 0
  store ptr null, ptr %allocator, align 8
  %2 = load ptr, ptr %result, align 8
  %prev = getelementptr inbounds %"struct.pugi::impl::(anonymous namespace)::xml_memory_page", ptr %2, i32 0, i32 1
  store ptr null, ptr %prev, align 8
  %3 = load ptr, ptr %result, align 8
  %next = getelementptr inbounds %"struct.pugi::impl::(anonymous namespace)::xml_memory_page", ptr %3, i32 0, i32 2
  store ptr null, ptr %next, align 8
  %4 = load ptr, ptr %result, align 8
  %busy_size = getelementptr inbounds %"struct.pugi::impl::(anonymous namespace)::xml_memory_page", ptr %4, i32 0, i32 3
  store i64 0, ptr %busy_size, align 8
  %5 = load ptr, ptr %result, align 8
  %freed_size = getelementptr inbounds %"struct.pugi::impl::(anonymous namespace)::xml_memory_page", ptr %5, i32 0, i32 4
  store i64 0, ptr %freed_size, align 8
  %6 = load ptr, ptr %result, align 8
  ret ptr %6
}

; Function Attrs: mustprogress uwtable
define internal void @_ZN4pugi4impl12_GLOBAL__N_113xml_allocator15deallocate_pageEPNS1_15xml_memory_pageE(ptr noundef %page) #2 align 2 {
entry:
  %page.addr = alloca ptr, align 8
  store ptr %page, ptr %page.addr, align 8
  %0 = load ptr, ptr @_ZN4pugi4impl12_GLOBAL__N_138xml_memory_management_function_storageIiE10deallocateE, align 8
  %1 = load ptr, ptr %page.addr, align 8
  call void %0(ptr noundef %1)
  ret void
}

; Function Attrs: mustprogress uwtable
define void @_ZN4pugi12xml_document7_createEv(ptr noundef nonnull align 8 dereferenceable(208) %this) #2 align 2 {
entry:
  %this.addr = alloca ptr, align 8
  %page_offset = alloca i64, align 8
  %page = alloca ptr, align 8
  store ptr %this, ptr %this.addr, align 8
  %this1 = load ptr, ptr %this.addr, align 8
  store i64 0, ptr %page_offset, align 8
  %_memory = getelementptr inbounds %"class.pugi::xml_document", ptr %this1, i32 0, i32 2
  %arraydecay = getelementptr inbounds [192 x i8], ptr %_memory, i64 0, i64 0
  %call = call noundef ptr @_ZN4pugi4impl12_GLOBAL__N_115xml_memory_page9constructEPv(ptr noundef %arraydecay)
  store ptr %call, ptr %page, align 8
  %0 = load ptr, ptr %page, align 8
  %busy_size = getelementptr inbounds %"struct.pugi::impl::(anonymous namespace)::xml_memory_page", ptr %0, i32 0, i32 3
  store i64 32728, ptr %busy_size, align 8
  %1 = load ptr, ptr %page, align 8
  %add.ptr = getelementptr inbounds i8, ptr %1, i64 40
  %add.ptr2 = getelementptr inbounds i8, ptr %add.ptr, i64 0
  %2 = load ptr, ptr %page, align 8
  call void @_ZN4pugi4impl12_GLOBAL__N_119xml_document_structC2EPNS1_15xml_memory_pageE(ptr noundef nonnull align 8 dereferenceable(96) %add.ptr2, ptr noundef %2)
  %_root = getelementptr inbounds %"class.pugi::xml_node", ptr %this1, i32 0, i32 0
  store ptr %add.ptr2, ptr %_root, align 8
  %_root3 = getelementptr inbounds %"class.pugi::xml_node", ptr %this1, i32 0, i32 0
  %3 = load ptr, ptr %_root3, align 8
  %_root4 = getelementptr inbounds %"class.pugi::xml_node", ptr %this1, i32 0, i32 0
  %4 = load ptr, ptr %_root4, align 8
  %prev_sibling_c = getelementptr inbounds %"struct.pugi::xml_node_struct", ptr %4, i32 0, i32 5
  store ptr %3, ptr %prev_sibling_c, align 8
  %_root5 = getelementptr inbounds %"class.pugi::xml_node", ptr %this1, i32 0, i32 0
  %5 = load ptr, ptr %_root5, align 8
  %6 = icmp eq ptr %5, null
  br i1 %6, label %cast.end, label %cast.notnull

cast.notnull:                                     ; preds = %entry
  %add.ptr6 = getelementptr inbounds i8, ptr %5, i64 64
  br label %cast.end

cast.end:                                         ; preds = %cast.notnull, %entry
  %cast.result = phi ptr [ %add.ptr6, %cast.notnull ], [ null, %entry ]
  %7 = load ptr, ptr %page, align 8
  %allocator = getelementptr inbounds %"struct.pugi::impl::(anonymous namespace)::xml_memory_page", ptr %7, i32 0, i32 0
  store ptr %cast.result, ptr %allocator, align 8
  ret void
}

; Function Attrs: mustprogress uwtable
define void @_ZN4pugi12xml_document8_destroyEv(ptr noundef nonnull align 8 dereferenceable(208) %this) #2 align 2 {
entry:
  %this.addr = alloca ptr, align 8
  %extra = alloca ptr, align 8
  %root_page = alloca ptr, align 8
  %page = alloca ptr, align 8
  %next16 = alloca ptr, align 8
  store ptr %this, ptr %this.addr, align 8
  %this1 = load ptr, ptr %this.addr, align 8
  %_buffer = getelementptr inbounds %"class.pugi::xml_document", ptr %this1, i32 0, i32 1
  %0 = load ptr, ptr %_buffer, align 8
  %tobool = icmp ne ptr %0, null
  br i1 %tobool, label %if.then, label %if.end

if.then:                                          ; preds = %entry
  %1 = load ptr, ptr @_ZN4pugi4impl12_GLOBAL__N_138xml_memory_management_function_storageIiE10deallocateE, align 8
  %_buffer2 = getelementptr inbounds %"class.pugi::xml_document", ptr %this1, i32 0, i32 1
  %2 = load ptr, ptr %_buffer2, align 8
  call void %1(ptr noundef %2)
  %_buffer3 = getelementptr inbounds %"class.pugi::xml_document", ptr %this1, i32 0, i32 1
  store ptr null, ptr %_buffer3, align 8
  br label %if.end

if.end:                                           ; preds = %if.then, %entry
  %_root = getelementptr inbounds %"class.pugi::xml_node", ptr %this1, i32 0, i32 0
  %3 = load ptr, ptr %_root, align 8
  %extra_buffers = getelementptr inbounds %"struct.pugi::impl::(anonymous namespace)::xml_document_struct", ptr %3, i32 0, i32 3
  %4 = load ptr, ptr %extra_buffers, align 8
  store ptr %4, ptr %extra, align 8
  br label %for.cond

for.cond:                                         ; preds = %for.inc, %if.end
  %5 = load ptr, ptr %extra, align 8
  %tobool4 = icmp ne ptr %5, null
  br i1 %tobool4, label %for.body, label %for.end

for.body:                                         ; preds = %for.cond
  %6 = load ptr, ptr %extra, align 8
  %buffer = getelementptr inbounds %"struct.pugi::impl::(anonymous namespace)::xml_extra_buffer", ptr %6, i32 0, i32 0
  %7 = load ptr, ptr %buffer, align 8
  %tobool5 = icmp ne ptr %7, null
  br i1 %tobool5, label %if.then6, label %if.end8

if.then6:                                         ; preds = %for.body
  %8 = load ptr, ptr @_ZN4pugi4impl12_GLOBAL__N_138xml_memory_management_function_storageIiE10deallocateE, align 8
  %9 = load ptr, ptr %extra, align 8
  %buffer7 = getelementptr inbounds %"struct.pugi::impl::(anonymous namespace)::xml_extra_buffer", ptr %9, i32 0, i32 0
  %10 = load ptr, ptr %buffer7, align 8
  call void %8(ptr noundef %10)
  br label %if.end8

if.end8:                                          ; preds = %if.then6, %for.body
  br label %for.inc

for.inc:                                          ; preds = %if.end8
  %11 = load ptr, ptr %extra, align 8
  %next = getelementptr inbounds %"struct.pugi::impl::(anonymous namespace)::xml_extra_buffer", ptr %11, i32 0, i32 1
  %12 = load ptr, ptr %next, align 8
  store ptr %12, ptr %extra, align 8
  br label %for.cond, !llvm.loop !36

for.end:                                          ; preds = %for.cond
  %_root9 = getelementptr inbounds %"class.pugi::xml_node", ptr %this1, i32 0, i32 0
  %13 = load ptr, ptr %_root9, align 8
  %header = getelementptr inbounds %"struct.pugi::xml_node_struct", ptr %13, i32 0, i32 0
  %_root10 = getelementptr inbounds %"class.pugi::xml_node", ptr %this1, i32 0, i32 0
  %14 = load ptr, ptr %_root10, align 8
  %header11 = getelementptr inbounds %"struct.pugi::xml_node_struct", ptr %14, i32 0, i32 0
  %15 = load i64, ptr %header11, align 8
  %shr = lshr i64 %15, 8
  %idx.neg = sub i64 0, %shr
  %add.ptr = getelementptr inbounds i8, ptr %header, i64 %idx.neg
  store ptr %add.ptr, ptr %root_page, align 8
  %16 = load ptr, ptr %root_page, align 8
  %next12 = getelementptr inbounds %"struct.pugi::impl::(anonymous namespace)::xml_memory_page", ptr %16, i32 0, i32 2
  %17 = load ptr, ptr %next12, align 8
  store ptr %17, ptr %page, align 8
  br label %for.cond13

for.cond13:                                       ; preds = %for.body15, %for.end
  %18 = load ptr, ptr %page, align 8
  %tobool14 = icmp ne ptr %18, null
  br i1 %tobool14, label %for.body15, label %for.end18

for.body15:                                       ; preds = %for.cond13
  %19 = load ptr, ptr %page, align 8
  %next17 = getelementptr inbounds %"struct.pugi::impl::(anonymous namespace)::xml_memory_page", ptr %19, i32 0, i32 2
  %20 = load ptr, ptr %next17, align 8
  store ptr %20, ptr %next16, align 8
  %21 = load ptr, ptr %page, align 8
  call void @_ZN4pugi4impl12_GLOBAL__N_113xml_allocator15deallocate_pageEPNS1_15xml_memory_pageE(ptr noundef %21)
  %22 = load ptr, ptr %next16, align 8
  store ptr %22, ptr %page, align 8
  br label %for.cond13, !llvm.loop !37

for.end18:                                        ; preds = %for.cond13
  %_root19 = getelementptr inbounds %"class.pugi::xml_node", ptr %this1, i32 0, i32 0
  store ptr null, ptr %_root19, align 8
  ret void
}

; Function Attrs: mustprogress uwtable
define void @_ZN4pugi12xml_document5resetEv(ptr noundef nonnull align 8 dereferenceable(208) %this) #2 align 2 {
entry:
  %this.addr = alloca ptr, align 8
  store ptr %this, ptr %this.addr, align 8
  %this1 = load ptr, ptr %this.addr, align 8
  call void @_ZN4pugi12xml_document8_destroyEv(ptr noundef nonnull align 8 dereferenceable(208) %this1)
  call void @_ZN4pugi12xml_document7_createEv(ptr noundef nonnull align 8 dereferenceable(208) %this1)
  ret void
}