; Function Attrs: mustprogress uwtable
define void @_ZN4pugi12xml_document5resetEv(ptr noundef nonnull align 8 dereferenceable(208) %this) local_unnamed_addr #6 align 2 {
entry:
  %_buffer.i = getelementptr inbounds i8, ptr %this, i64 8
  %0 = load ptr, ptr %_buffer.i, align 8
  %tobool.not.i = icmp eq ptr %0, null
  br i1 %tobool.not.i, label %if.end.i, label %if.then.i

if.then.i:                                        ; preds = %entry
  %1 = load ptr, ptr @_ZN4pugi4impl12_GLOBAL__N_138xml_memory_management_function_storageIiE10deallocateE, align 8
  tail call void %1(ptr noundef nonnull %0)
  store ptr null, ptr %_buffer.i, align 8
  br label %if.end.i

if.end.i:                                         ; preds = %if.then.i, %entry
  %2 = load ptr, ptr %this, align 8
  %extra_buffers.i = getelementptr inbounds i8, ptr %2, i64 88
  %extra.07.i = load ptr, ptr %extra_buffers.i, align 8
  %tobool4.not8.i = icmp eq ptr %extra.07.i, null
  br i1 %tobool4.not8.i, label %for.end.i, label %for.body.i

for.body.i:                                       ; preds = %if.end.i, %for.inc.i
  %extra.09.i = phi ptr [ %extra.0.i, %for.inc.i ], [ %extra.07.i, %if.end.i ]
  %3 = load ptr, ptr %extra.09.i, align 8
  %tobool5.not.i = icmp eq ptr %3, null
  br i1 %tobool5.not.i, label %for.inc.i, label %if.then6.i

if.then6.i:                                       ; preds = %for.body.i
  %4 = load ptr, ptr @_ZN4pugi4impl12_GLOBAL__N_138xml_memory_management_function_storageIiE10deallocateE, align 8
  tail call void %4(ptr noundef nonnull %3)
  br label %for.inc.i

for.inc.i:                                        ; preds = %if.then6.i, %for.body.i
  %next.i = getelementptr inbounds i8, ptr %extra.09.i, i64 8
  %extra.0.i = load ptr, ptr %next.i, align 8
  %tobool4.not.i = icmp eq ptr %extra.0.i, null
  br i1 %tobool4.not.i, label %for.end.loopexit.i, label %for.body.i, !llvm.loop !110

for.end.loopexit.i:                               ; preds = %for.inc.i
  %.pre.i = load ptr, ptr %this, align 8
  br label %for.end.i

for.end.i:                                        ; preds = %for.end.loopexit.i, %if.end.i
  %5 = phi ptr [ %.pre.i, %for.end.loopexit.i ], [ %2, %if.end.i ]
  %6 = load i64, ptr %5, align 8
  %shr.i = lshr i64 %6, 8
  %idx.neg.i = sub nsw i64 0, %shr.i
  %add.ptr.i = getelementptr inbounds i8, ptr %5, i64 %idx.neg.i
  %next12.i = getelementptr inbounds i8, ptr %add.ptr.i, i64 16
  %7 = load ptr, ptr %next12.i, align 8
  %tobool14.not10.i = icmp eq ptr %7, null
  br i1 %tobool14.not10.i, label %_ZN4pugi12xml_document8_destroyEv.exit, label %for.body15.i

for.body15.i:                                     ; preds = %for.end.i, %for.body15.i
  %page.011.i = phi ptr [ %8, %for.body15.i ], [ %7, %for.end.i ]
  %next17.i = getelementptr inbounds i8, ptr %page.011.i, i64 16
  %8 = load ptr, ptr %next17.i, align 8
  %9 = load ptr, ptr @_ZN4pugi4impl12_GLOBAL__N_138xml_memory_management_function_storageIiE10deallocateE, align 8
  tail call void %9(ptr noundef nonnull %page.011.i)
  %tobool14.not.i = icmp eq ptr %8, null
  br i1 %tobool14.not.i, label %_ZN4pugi12xml_document8_destroyEv.exit, label %for.body15.i, !llvm.loop !111

_ZN4pugi12xml_document8_destroyEv.exit:           ; preds = %for.body15.i, %for.end.i
  %_memory.i = getelementptr inbounds i8, ptr %this, i64 16
  %10 = getelementptr inbounds i8, ptr %this, i64 24
  tail call void @llvm.memset.p0.i64(ptr noundef nonnull align 8 dereferenceable(40) %10, i8 0, i64 32, i1 false)
  %busy_size.i = getelementptr inbounds i8, ptr %this, i64 40
  store i64 32728, ptr %busy_size.i, align 8
  %add.ptr.i1 = getelementptr inbounds i8, ptr %this, i64 56
  %name.i.i.i = getelementptr inbounds i8, ptr %this, i64 64
  tail call void @llvm.memset.p0.i64(ptr noundef nonnull align 8 dereferenceable(56) %name.i.i.i, i8 0, i64 56, i1 false)
  store i64 10241, ptr %add.ptr.i1, align 8
  %11 = getelementptr inbounds i8, ptr %this, i64 120
  store ptr %_memory.i, ptr %11, align 8
  %_busy_size.i.i.i = getelementptr inbounds i8, ptr %this, i64 128
  store i64 32728, ptr %_busy_size.i.i.i, align 8
  %buffer.i.i = getelementptr inbounds i8, ptr %this, i64 136
  tail call void @llvm.memset.p0.i64(ptr noundef nonnull align 8 dereferenceable(16) %buffer.i.i, i8 0, i64 16, i1 false)
  store ptr %add.ptr.i1, ptr %this, align 8
  %prev_sibling_c.i = getelementptr inbounds i8, ptr %this, i64 96
  store ptr %add.ptr.i1, ptr %prev_sibling_c.i, align 8
  store ptr %11, ptr %_memory.i, align 8
  ret void
}